; Function Attrs: nounwind uwtable
define ptr @l_Std_DTreeMap_Internal_Impl_foldlM___at_Lean_Meta_Grind_propagateBeta___spec__3(ptr noundef %0, ptr noundef %1) local_unnamed_addr #1 {
  br label %3

3:                                                ; preds = %lean_dec.exit, %2
  %.015 = phi ptr [ %1, %2 ], [ %35, %lean_dec.exit ]
  %.0 = phi ptr [ %0, %2 ], [ %52, %lean_dec.exit ]
  %4 = ptrtoint ptr %.015 to i64
  %5 = and i64 %4, 1
  %.not.i18 = icmp eq i64 %5, 0
  br i1 %.not.i18, label %9, label %6

6:                                                ; preds = %3
  %7 = lshr i64 %4, 1
  %8 = trunc i64 %7 to i32
  br label %lean_obj_tag.exit

9:                                                ; preds = %3
  %10 = getelementptr i8, ptr %.015, i64 4
  %.val.i = load i32, ptr %10, align 4
  %11 = lshr i32 %.val.i, 24
  br label %lean_obj_tag.exit

lean_obj_tag.exit:                                ; preds = %6, %9
  %.0.i = phi i32 [ %8, %6 ], [ %11, %9 ]
  %12 = icmp eq i32 %.0.i, 0
  br i1 %12, label %13, label %53

13:                                               ; preds = %lean_obj_tag.exit
  %14 = getelementptr inbounds nuw i8, ptr %.015, i64 16
  %15 = load ptr, ptr %14, align 8, !tbaa !11
  %16 = ptrtoint ptr %15 to i64
  %17 = and i64 %16, 1
  %.not = icmp eq i64 %17, 0
  br i1 %.not, label %18, label %lean_inc.exit17

18:                                               ; preds = %13
  %.val.i19 = load i32, ptr %15, align 4, !tbaa !8
  %19 = icmp sgt i32 %.val.i19, 0
  br i1 %19, label %20, label %22, !prof !13

20:                                               ; preds = %18
  %21 = add nuw i32 %.val.i19, 1
  store i32 %21, ptr %15, align 4, !tbaa !8
  br label %lean_inc.exit17

22:                                               ; preds = %18
  %.not.i20 = icmp eq i32 %.val.i19, 0
  br i1 %.not.i20, label %lean_inc.exit17, label %23

23:                                               ; preds = %22
  tail call void @lean_inc_ref_cold(ptr noundef nonnull %15) #5
  br label %lean_inc.exit17

lean_inc.exit17:                                  ; preds = %23, %22, %20, %13
  %24 = getelementptr inbounds nuw i8, ptr %.015, i64 32
  %25 = load ptr, ptr %24, align 8, !tbaa !11
  %26 = ptrtoint ptr %25 to i64
  %27 = and i64 %26, 1
  %.not27 = icmp eq i64 %27, 0
  br i1 %.not27, label %28, label %lean_inc.exit16

28:                                               ; preds = %lean_inc.exit17
  %.val.i21 = load i32, ptr %25, align 4, !tbaa !8
  %29 = icmp sgt i32 %.val.i21, 0
  br i1 %29, label %30, label %32, !prof !13

30:                                               ; preds = %28
  %31 = add nuw i32 %.val.i21, 1
  store i32 %31, ptr %25, align 4, !tbaa !8
  br label %lean_inc.exit16

32:                                               ; preds = %28
  %.not.i22 = icmp eq i32 %.val.i21, 0
  br i1 %.not.i22, label %lean_inc.exit16, label %33

33:                                               ; preds = %32
  tail call void @lean_inc_ref_cold(ptr noundef nonnull %25) #5
  br label %lean_inc.exit16

lean_inc.exit16:                                  ; preds = %33, %32, %30, %lean_inc.exit17
  %34 = getelementptr inbounds nuw i8, ptr %.015, i64 40
  %35 = load ptr, ptr %34, align 8, !tbaa !11
  %36 = ptrtoint ptr %35 to i64
  %37 = and i64 %36, 1
  %.not28 = icmp eq i64 %37, 0
  br i1 %.not28, label %38, label %lean_inc.exit

38:                                               ; preds = %lean_inc.exit16
  %.val.i24 = load i32, ptr %35, align 4, !tbaa !8
  %39 = icmp sgt i32 %.val.i24, 0
  br i1 %39, label %40, label %42, !prof !13

40:                                               ; preds = %38
  %41 = add nuw i32 %.val.i24, 1
  store i32 %41, ptr %35, align 4, !tbaa !8
  br label %lean_inc.exit

42:                                               ; preds = %38
  %.not.i25 = icmp eq i32 %.val.i24, 0
  br i1 %.not.i25, label %lean_inc.exit, label %43

43:                                               ; preds = %42
  tail call void @lean_inc_ref_cold(ptr noundef nonnull %35) #5
  br label %lean_inc.exit

lean_inc.exit:                                    ; preds = %43, %42, %40, %lean_inc.exit16
  br i1 %.not.i18, label %44, label %lean_dec.exit

44:                                               ; preds = %lean_inc.exit
  %45 = load i32, ptr %.015, align 4, !tbaa !8
  %46 = icmp sgt i32 %45, 1
  br i1 %46, label %47, label %49, !prof !13

47:                                               ; preds = %44
  %48 = add nsw i32 %45, -1
  store i32 %48, ptr %.015, align 4, !tbaa !8
  br label %lean_dec.exit

49:                                               ; preds = %44
  %.not.i = icmp eq i32 %45, 0
  br i1 %.not.i, label %lean_dec.exit, label %50

50:                                               ; preds = %49
  tail call void @lean_dec_ref_cold(ptr noundef nonnull %.015) #5
  br label %lean_dec.exit

lean_dec.exit:                                    ; preds = %50, %49, %47, %lean_inc.exit
  %51 = tail call ptr @l_Std_DTreeMap_Internal_Impl_foldlM___at_Lean_Meta_Grind_propagateBeta___spec__3(ptr noundef %.0, ptr noundef %25)
  %52 = tail call ptr @lean_array_push(ptr noundef %51, ptr noundef %15) #5
  br label %3

53:                                               ; preds = %lean_obj_tag.exit
  ret ptr %.0
}